; Function Attrs: mustprogress uwtable
define dso_local void @_ZN3net18ReliableQuicStream13CloseReadSideEv(ptr noundef nonnull align 8 dereferenceable(377) %this) local_unnamed_addr #2 align 2 {
entry:
  %read_side_closed_ = getelementptr inbounds i8, ptr %this, i64 256
  %0 = load i8, ptr %read_side_closed_, align 8
  %1 = and i8 %0, 1
  %tobool.not = icmp eq i8 %1, 0
  br i1 %tobool.not, label %if.end, label %if.end5

if.end:                                           ; preds = %entry
  store i8 1, ptr %read_side_closed_, align 8
  %sequencer_ = getelementptr inbounds i8, ptr %this, i64 40
  tail call void @_ZN3net19QuicStreamSequencer13ReleaseBufferEv(ptr noundef nonnull align 8 dereferenceable(169) %sequencer_)
  %write_side_closed_ = getelementptr inbounds i8, ptr %this, i64 257
  %2 = load i8, ptr %write_side_closed_, align 1
  %3 = and i8 %2, 1
  %tobool3.not = icmp eq i8 %3, 0
  br i1 %tobool3.not, label %if.end5, label %if.then4

if.then4:                                         ; preds = %if.end
  %session_ = getelementptr inbounds i8, ptr %this, i64 224
  %4 = load ptr, ptr %session_, align 8
  %id_.i = getelementptr inbounds i8, ptr %this, i64 216
  %5 = load i32, ptr %id_.i, align 8
  %vtable = load ptr, ptr %4, align 8
  %vfn = getelementptr inbounds i8, ptr %vtable, i64 176
  %6 = load ptr, ptr %vfn, align 8
  tail call void %6(ptr noundef nonnull align 8 dereferenceable(2044) %4, i32 noundef %5)
  br label %if.end5

if.end5:                                          ; preds = %entry, %if.then4, %if.end
  ret void
}